target datalayout = "e-m:e-p270:32:32-p271:32:32-p272:64:64-i64:64-i128:128-f80:128-n8:16:32:64-S128"
target triple = "x86_64-pc-linux-gnu"

%union.Value = type { ptr }
%struct.TValue = type { %union.Value, i8 }
%union.Node = type { %struct.NodeKey }
%struct.NodeKey = type { %union.Value, i8, i8, i32, %union.Value }

@absentkey = internal constant { %union.Value, i8, [7 x i8] } { %union.Value zeroinitializer, i8 32, [7 x i8] zeroinitializer }, align 8

; Function Attrs: nounwind uwtable
define internal i32 @equalkey(ptr noundef %0, ptr noundef %1, i32 noundef %2) #0 {
  %4 = alloca i32, align 4
  %5 = alloca ptr, align 8
  %6 = alloca ptr, align 8
  %7 = alloca i32, align 4
  store ptr %0, ptr %5, align 8, !tbaa !22
  store ptr %1, ptr %6, align 8, !tbaa !29
  store i32 %2, ptr %7, align 4, !tbaa !19
  %8 = load ptr, ptr %5, align 8, !tbaa !22
  %9 = getelementptr inbounds nuw %struct.TValue, ptr %8, i32 0, i32 1
  %10 = load i8, ptr %9, align 8, !tbaa !24
  %11 = zext i8 %10 to i32
  %12 = load ptr, ptr %6, align 8, !tbaa !29
  %13 = getelementptr inbounds nuw %struct.NodeKey, ptr %12, i32 0, i32 2
  %14 = load i8, ptr %13, align 1, !tbaa !21
  %15 = zext i8 %14 to i32
  %16 = icmp ne i32 %11, %15
  br i1 %16, label %17, label %34

17:                                               ; preds = %3
  %18 = load i32, ptr %7, align 4, !tbaa !19
  %19 = icmp ne i32 %18, 0
  br i1 %19, label %20, label %33

20:                                               ; preds = %17
  %21 = load ptr, ptr %6, align 8, !tbaa !29
  %22 = getelementptr inbounds nuw %struct.NodeKey, ptr %21, i32 0, i32 2
  %23 = load i8, ptr %22, align 1, !tbaa !21
  %24 = zext i8 %23 to i32
  %25 = icmp eq i32 %24, 11
  br i1 %25, label %26, label %33

26:                                               ; preds = %20
  %27 = load ptr, ptr %5, align 8, !tbaa !22
  %28 = getelementptr inbounds nuw %struct.TValue, ptr %27, i32 0, i32 1
  %29 = load i8, ptr %28, align 8, !tbaa !24
  %30 = zext i8 %29 to i32
  %31 = and i32 %30, 64
  %32 = icmp ne i32 %31, 0
  br i1 %32, label %34, label %33

33:                                               ; preds = %26, %20, %17
  store i32 0, ptr %4, align 4
  br label %93

34:                                               ; preds = %26, %3
  %35 = load ptr, ptr %6, align 8, !tbaa !29
  %36 = getelementptr inbounds nuw %struct.NodeKey, ptr %35, i32 0, i32 2
  %37 = load i8, ptr %36, align 1, !tbaa !21
  %38 = zext i8 %37 to i32
  switch i32 %38, label %84 [
    i32 0, label %39
    i32 1, label %39
    i32 17, label %39
    i32 3, label %40
    i32 19, label %49
    i32 2, label %58
    i32 22, label %67
    i32 84, label %76
  ]

39:                                               ; preds = %34, %34, %34
  store i32 1, ptr %4, align 4
  br label %93

40:                                               ; preds = %34
  %41 = load ptr, ptr %5, align 8, !tbaa !22
  %42 = getelementptr inbounds nuw %struct.TValue, ptr %41, i32 0, i32 0
  %43 = load i64, ptr %42, align 8, !tbaa !21
  %44 = load ptr, ptr %6, align 8, !tbaa !29
  %45 = getelementptr inbounds nuw %struct.NodeKey, ptr %44, i32 0, i32 4
  %46 = load i64, ptr %45, align 8, !tbaa !21
  %47 = icmp eq i64 %43, %46
  %48 = zext i1 %47 to i32
  store i32 %48, ptr %4, align 4
  br label %93

49:                                               ; preds = %34
  %50 = load ptr, ptr %5, align 8, !tbaa !22
  %51 = getelementptr inbounds nuw %struct.TValue, ptr %50, i32 0, i32 0
  %52 = load double, ptr %51, align 8, !tbaa !21
  %53 = load ptr, ptr %6, align 8, !tbaa !29
  %54 = getelementptr inbounds nuw %struct.NodeKey, ptr %53, i32 0, i32 4
  %55 = load double, ptr %54, align 8, !tbaa !21
  %56 = fcmp oeq double %52, %55
  %57 = zext i1 %56 to i32
  store i32 %57, ptr %4, align 4
  br label %93

58:                                               ; preds = %34
  %59 = load ptr, ptr %5, align 8, !tbaa !22
  %60 = getelementptr inbounds nuw %struct.TValue, ptr %59, i32 0, i32 0
  %61 = load ptr, ptr %60, align 8, !tbaa !21
  %62 = load ptr, ptr %6, align 8, !tbaa !29
  %63 = getelementptr inbounds nuw %struct.NodeKey, ptr %62, i32 0, i32 4
  %64 = load ptr, ptr %63, align 8, !tbaa !21
  %65 = icmp eq ptr %61, %64
  %66 = zext i1 %65 to i32
  store i32 %66, ptr %4, align 4
  br label %93

67:                                               ; preds = %34
  %68 = load ptr, ptr %5, align 8, !tbaa !22
  %69 = getelementptr inbounds nuw %struct.TValue, ptr %68, i32 0, i32 0
  %70 = load ptr, ptr %69, align 8, !tbaa !21
  %71 = load ptr, ptr %6, align 8, !tbaa !29
  %72 = getelementptr inbounds nuw %struct.NodeKey, ptr %71, i32 0, i32 4
  %73 = load ptr, ptr %72, align 8, !tbaa !21
  %74 = icmp eq ptr %70, %73
  %75 = zext i1 %74 to i32
  store i32 %75, ptr %4, align 4
  br label %93

76:                                               ; preds = %34
  %77 = load ptr, ptr %5, align 8, !tbaa !22
  %78 = getelementptr inbounds nuw %struct.TValue, ptr %77, i32 0, i32 0
  %79 = load ptr, ptr %78, align 8, !tbaa !21
  %80 = load ptr, ptr %6, align 8, !tbaa !29
  %81 = getelementptr inbounds nuw %struct.NodeKey, ptr %80, i32 0, i32 4
  %82 = load ptr, ptr %81, align 8, !tbaa !21
  %83 = call i32 @luaS_eqlngstr(ptr noundef %79, ptr noundef %82)
  store i32 %83, ptr %4, align 4
  br label %93

84:                                               ; preds = %34
  %85 = load ptr, ptr %5, align 8, !tbaa !22
  %86 = getelementptr inbounds nuw %struct.TValue, ptr %85, i32 0, i32 0
  %87 = load ptr, ptr %86, align 8, !tbaa !21
  %88 = load ptr, ptr %6, align 8, !tbaa !29
  %89 = getelementptr inbounds nuw %struct.NodeKey, ptr %88, i32 0, i32 4
  %90 = load ptr, ptr %89, align 8, !tbaa !21
  %91 = icmp eq ptr %87, %90
  %92 = zext i1 %91 to i32
  store i32 %92, ptr %4, align 4
  br label %93

93:                                               ; preds = %84, %76, %67, %58, %49, %40, %39, %33
  %94 = load i32, ptr %4, align 4
  ret i32 %94
}

; Function Attrs: nounwind uwtable
define internal ptr @getgeneric(ptr noundef %0, ptr noundef %1, i32 noundef %2) #0 {
  %4 = alloca ptr, align 8
  %5 = alloca ptr, align 8
  %6 = alloca ptr, align 8
  %7 = alloca i32, align 4
  %8 = alloca ptr, align 8
  %9 = alloca i32, align 4
  %10 = alloca i32, align 4
  store ptr %0, ptr %5, align 8, !tbaa !9
  store ptr %1, ptr %6, align 8, !tbaa !22
  store i32 %2, ptr %7, align 4, !tbaa !19
  call void @llvm.lifetime.start.p0(i64 8, ptr %8) #8
  %11 = load ptr, ptr %5, align 8, !tbaa !9
  %12 = load ptr, ptr %6, align 8, !tbaa !22
  %13 = call ptr @mainpositionTV(ptr noundef %11, ptr noundef %12)
  store ptr %13, ptr %8, align 8, !tbaa !29
  br label %14

14:                                               ; preds = %37, %3
  %15 = load ptr, ptr %6, align 8, !tbaa !22
  %16 = load ptr, ptr %8, align 8, !tbaa !29
  %17 = load i32, ptr %7, align 4, !tbaa !19
  %18 = call i32 @equalkey(ptr noundef %15, ptr noundef %16, i32 noundef %17)
  %19 = icmp ne i32 %18, 0
  br i1 %19, label %20, label %22

20:                                               ; preds = %14
  %21 = load ptr, ptr %8, align 8, !tbaa !29
  store ptr %21, ptr %4, align 8
  store i32 1, ptr %9, align 4
  br label %38

22:                                               ; preds = %14
  call void @llvm.lifetime.start.p0(i64 4, ptr %10) #8
  %23 = load ptr, ptr %8, align 8, !tbaa !29
  %24 = getelementptr inbounds nuw %struct.NodeKey, ptr %23, i32 0, i32 3
  %25 = load i32, ptr %24, align 4, !tbaa !21
  store i32 %25, ptr %10, align 4, !tbaa !19
  %26 = load i32, ptr %10, align 4, !tbaa !19
  %27 = icmp eq i32 %26, 0
  br i1 %27, label %28, label %29

28:                                               ; preds = %22
  store ptr @absentkey, ptr %4, align 8
  store i32 1, ptr %9, align 4
  br label %34

29:                                               ; preds = %22
  %30 = load i32, ptr %10, align 4, !tbaa !19
  %31 = load ptr, ptr %8, align 8, !tbaa !29
  %32 = sext i32 %30 to i64
  %33 = getelementptr inbounds %union.Node, ptr %31, i64 %32
  store ptr %33, ptr %8, align 8, !tbaa !29
  store i32 0, ptr %9, align 4
  br label %34

34:                                               ; preds = %29, %28
  call void @llvm.lifetime.end.p0(i64 4, ptr %10) #8
  %35 = load i32, ptr %9, align 4
  switch i32 %35, label %38 [
    i32 0, label %36
  ]

36:                                               ; preds = %34
  br label %37

37:                                               ; preds = %36
  br label %14

38:                                               ; preds = %34, %20
  call void @llvm.lifetime.end.p0(i64 8, ptr %8) #8
  %39 = load ptr, ptr %4, align 8
  ret ptr %39
}