; Function Attrs: nounwind uwtable
define internal fastcc ptr @getgeneric(ptr noundef readonly captures(none) %0, ptr noundef readonly captures(none) %1, i32 noundef range(i32 0, 2) %2) unnamed_addr #0 {
  %4 = tail call fastcc ptr @mainpositionTV(ptr noundef %0, ptr noundef %1)
  %5 = getelementptr inbounds nuw i8, ptr %1, i64 8
  %.not20.i = icmp eq i32 %2, 0
  br i1 %.not20.i, label %.split.us, label %.split

.split.us:                                        ; preds = %3, %equalkey.exit.thread.us
  %.012.us = phi ptr [ %38, %equalkey.exit.thread.us ], [ %4, %3 ]
  %6 = load i8, ptr %5, align 8, !tbaa !14
  %7 = getelementptr inbounds nuw i8, ptr %.012.us, i64 9
  %8 = load i8, ptr %7, align 1, !tbaa !16
  %.not.i.us = icmp eq i8 %6, %8
  br i1 %.not.i.us, label %9, label %equalkey.exit.thread.us

9:                                                ; preds = %.split.us
  switch i8 %6, label %.thread.i.us [
    i8 0, label %equalkey.exit.thread18
    i8 1, label %equalkey.exit.thread18
    i8 17, label %equalkey.exit.thread18
    i8 3, label %equalkey.exit.us
    i8 19, label %24
    i8 2, label %20
    i8 22, label %16
    i8 84, label %10
  ]

10:                                               ; preds = %9
  %11 = load ptr, ptr %1, align 8, !tbaa !16
  %12 = getelementptr inbounds nuw i8, ptr %.012.us, i64 16
  %13 = load ptr, ptr %12, align 8, !tbaa !16
  %14 = tail call i32 @luaS_eqlngstr(ptr noundef %11, ptr noundef %13) #13
  %15 = icmp eq i32 %14, 0
  br i1 %15, label %equalkey.exit.thread.us, label %equalkey.exit.thread18

16:                                               ; preds = %9
  %17 = load ptr, ptr %1, align 8, !tbaa !16
  %18 = getelementptr inbounds nuw i8, ptr %.012.us, i64 16
  %19 = load ptr, ptr %18, align 8, !tbaa !16
  %.not28 = icmp eq ptr %17, %19
  br i1 %.not28, label %equalkey.exit.thread18, label %equalkey.exit.thread.us

20:                                               ; preds = %9
  %21 = load ptr, ptr %1, align 8, !tbaa !16
  %22 = getelementptr inbounds nuw i8, ptr %.012.us, i64 16
  %23 = load ptr, ptr %22, align 8, !tbaa !16
  %.not29 = icmp eq ptr %21, %23
  br i1 %.not29, label %equalkey.exit.thread18, label %equalkey.exit.thread.us

24:                                               ; preds = %9
  %25 = load double, ptr %1, align 8, !tbaa !16
  %26 = getelementptr inbounds nuw i8, ptr %.012.us, i64 16
  %27 = load double, ptr %26, align 8, !tbaa !16
  %28 = fcmp une double %25, %27
  br i1 %28, label %equalkey.exit.thread.us, label %equalkey.exit.thread18

.thread.i.us:                                     ; preds = %9
  %29 = load ptr, ptr %1, align 8, !tbaa !16
  %30 = getelementptr inbounds nuw i8, ptr %.012.us, i64 16
  %31 = load ptr, ptr %30, align 8, !tbaa !16
  %.not31 = icmp eq ptr %29, %31
  br i1 %.not31, label %equalkey.exit.thread18, label %equalkey.exit.thread.us

equalkey.exit.us:                                 ; preds = %9
  %32 = load i64, ptr %1, align 8, !tbaa !16
  %33 = getelementptr inbounds nuw i8, ptr %.012.us, i64 16
  %34 = load i64, ptr %33, align 8, !tbaa !16
  %.not30 = icmp eq i64 %32, %34
  br i1 %.not30, label %equalkey.exit.thread18, label %equalkey.exit.thread.us

equalkey.exit.thread.us:                          ; preds = %24, %20, %16, %10, %.thread.i.us, %.split.us, %equalkey.exit.us
  %35 = getelementptr inbounds nuw i8, ptr %.012.us, i64 12
  %36 = load i32, ptr %35, align 4, !tbaa !16
  %.not15.us = icmp eq i32 %36, 0
  %37 = sext i32 %36 to i64
  %38 = getelementptr inbounds %union.Node, ptr %.012.us, i64 %37
  br i1 %.not15.us, label %equalkey.exit.thread18, label %.split.us

.split:                                           ; preds = %3, %equalkey.exit.thread
  %.012 = phi ptr [ %74, %equalkey.exit.thread ], [ %4, %3 ]
  %39 = load i8, ptr %5, align 8, !tbaa !14
  %40 = getelementptr inbounds nuw i8, ptr %.012, i64 9
  %41 = load i8, ptr %40, align 1, !tbaa !16
  %.not.i = icmp eq i8 %39, %41
  br i1 %.not.i, label %45, label %42

42:                                               ; preds = %.split
  %43 = icmp ne i8 %41, 11
  %44 = and i8 %39, 64
  %.not21.i = icmp eq i8 %44, 0
  %or.cond22.i = or i1 %.not21.i, %43
  br i1 %or.cond22.i, label %equalkey.exit.thread, label %.thread.i

45:                                               ; preds = %.split
  switch i8 %39, label %.thread.i [
    i8 0, label %equalkey.exit.thread18
    i8 1, label %equalkey.exit.thread18
    i8 17, label %equalkey.exit.thread18
    i8 3, label %equalkey.exit
    i8 19, label %46
    i8 2, label %51
    i8 22, label %55
    i8 84, label %59
  ]

46:                                               ; preds = %45
  %47 = load double, ptr %1, align 8, !tbaa !16
  %48 = getelementptr inbounds nuw i8, ptr %.012, i64 16
  %49 = load double, ptr %48, align 8, !tbaa !16
  %50 = fcmp une double %47, %49
  br i1 %50, label %equalkey.exit.thread, label %equalkey.exit.thread18

51:                                               ; preds = %45
  %52 = load ptr, ptr %1, align 8, !tbaa !16
  %53 = getelementptr inbounds nuw i8, ptr %.012, i64 16
  %54 = load ptr, ptr %53, align 8, !tbaa !16
  %.not25 = icmp eq ptr %52, %54
  br i1 %.not25, label %equalkey.exit.thread18, label %equalkey.exit.thread

55:                                               ; preds = %45
  %56 = load ptr, ptr %1, align 8, !tbaa !16
  %57 = getelementptr inbounds nuw i8, ptr %.012, i64 16
  %58 = load ptr, ptr %57, align 8, !tbaa !16
  %.not = icmp eq ptr %56, %58
  br i1 %.not, label %equalkey.exit.thread18, label %equalkey.exit.thread

59:                                               ; preds = %45
  %60 = load ptr, ptr %1, align 8, !tbaa !16
  %61 = getelementptr inbounds nuw i8, ptr %.012, i64 16
  %62 = load ptr, ptr %61, align 8, !tbaa !16
  %63 = tail call i32 @luaS_eqlngstr(ptr noundef %60, ptr noundef %62) #13
  %64 = icmp eq i32 %63, 0
  br i1 %64, label %equalkey.exit.thread, label %equalkey.exit.thread18

.thread.i:                                        ; preds = %45, %42
  %65 = load ptr, ptr %1, align 8, !tbaa !16
  %66 = getelementptr inbounds nuw i8, ptr %.012, i64 16
  %67 = load ptr, ptr %66, align 8, !tbaa !16
  %.not27 = icmp eq ptr %65, %67
  br i1 %.not27, label %equalkey.exit.thread18, label %equalkey.exit.thread

equalkey.exit:                                    ; preds = %45
  %68 = load i64, ptr %1, align 8, !tbaa !16
  %69 = getelementptr inbounds nuw i8, ptr %.012, i64 16
  %70 = load i64, ptr %69, align 8, !tbaa !16
  %.not26 = icmp eq i64 %68, %70
  br i1 %.not26, label %equalkey.exit.thread18, label %equalkey.exit.thread

equalkey.exit.thread:                             ; preds = %46, %51, %55, %59, %.thread.i, %42, %equalkey.exit
  %71 = getelementptr inbounds nuw i8, ptr %.012, i64 12
  %72 = load i32, ptr %71, align 4, !tbaa !16
  %.not15 = icmp eq i32 %72, 0
  %73 = sext i32 %72 to i64
  %74 = getelementptr inbounds %union.Node, ptr %.012, i64 %73
  br i1 %.not15, label %equalkey.exit.thread18, label %.split

equalkey.exit.thread18:                           ; preds = %equalkey.exit.thread, %equalkey.exit, %45, %45, %45, %.thread.i, %59, %55, %51, %46, %9, %9, %9, %equalkey.exit.us, %equalkey.exit.thread.us, %.thread.i.us, %10, %16, %20, %24
  %.us-phi = phi ptr [ %.012.us, %24 ], [ %.012.us, %20 ], [ %.012.us, %16 ], [ %.012.us, %10 ], [ %.012.us, %.thread.i.us ], [ @absentkey, %equalkey.exit.thread.us ], [ %.012.us, %equalkey.exit.us ], [ %.012.us, %9 ], [ %.012.us, %9 ], [ %.012.us, %9 ], [ %.012, %46 ], [ %.012, %51 ], [ %.012, %55 ], [ %.012, %59 ], [ %.012, %.thread.i ], [ @absentkey, %equalkey.exit.thread ], [ %.012, %equalkey.exit ], [ %.012, %45 ], [ %.012, %45 ], [ %.012, %45 ]
  ret ptr %.us-phi
}